; Function Attrs: nounwind uwtable
define hidden ptr @SDL_GetWindowICCProfile_REAL(ptr noundef %0, ptr noundef %1) local_unnamed_addr #0 {
  %3 = load ptr, ptr @_this, align 8
  %4 = getelementptr inbounds nuw i8, ptr %3, i64 264
  %5 = load ptr, ptr %4, align 8
  %.not = icmp eq ptr %5, null
  br i1 %.not, label %6, label %8

6:                                                ; preds = %2
  %7 = tail call zeroext i1 (ptr, ...) @SDL_SetError_REAL(ptr noundef nonnull @.str.24) #19
  br label %10

8:                                                ; preds = %2
  %9 = tail call ptr %5(ptr noundef nonnull %3, ptr noundef %0, ptr noundef %1) #19
  br label %10

10:                                               ; preds = %8, %6
  %.0 = phi ptr [ %9, %8 ], [ null, %6 ]
  ret ptr %.0
}